Certificate:
    Data:
        Version: 3 (0x2)
        Serial Number:
            b1:12:76:e3:16:26:db:fc:1f:78:1b:b1:a5:29:26:c1
    Signature Algorithm: sha256WithRSAEncryption
        Issuer: CN=Easy-RSA CA
        Validity
            Not Before: Sep 18 20:29:29 2021 GMT
            Not After : Dec 22 20:29:29 2023 GMT
        Subject: CN=server
        Subject Public Key Info:
            Public Key Algorithm: rsaEncryption
                Public-Key: (2048 bit)
                Modulus:
                    00:ba:0f:31:24:ee:84:dd:f2:f3:1b:95:c1:de:f6:
                    7e:25:7b:0b:aa:3c:49:30:b3:5c:ca:8b:6a:59:8e:
                    5f:9a:82:40:0c:ab:d8:40:ef:32:2d:21:17:56:3c:
                    62:11:ec:61:5b:0b:6f:99:46:e6:dd:d4:1d:b1:b1:
                    c1:d5:cc:13:ec:80:45:6d:ee:4b:06:6b:f4:c3:74:
                    ee:6f:81:26:0e:b1:fa:99:43:da:93:b3:8e:a6:da:
                    3d:f3:9d:5b:32:40:0b:7e:54:04:c3:a6:8f:a9:84:
                    cb:24:24:64:26:73:4b:1e:b3:de:c0:3e:64:02:34:
                    4a:c3:34:fe:81:37:e0:b6:56:33:ab:3c:89:19:4d:
                    24:4f:3e:4d:60:c8:5e:41:89:eb:be:0e:25:7c:8a:
                    65:5b:b1:a8:3b:91:11:f6:45:ce:d2:61:f7:8c:50:
                    66:88:98:ef:71:ee:a4:05:96:f0:d1:55:26:51:4c:
                    39:2d:76:0a:1d:b8:08:ff:94:79:13:3a:9d:5c:98:
                    fd:8c:a0:f2:2d:87:a6:2a:29:89:1e:d6:cf:44:9c:
                    3f:3c:43:1f:68:6e:cd:4e:e6:bf:53:09:a1:07:e5:
                    7d:c5:6e:7d:2f:75:02:fc:1c:ac:20:2a:c7:58:79:
                    02:b1:94:5a:16:95:95:3c:63:d9:5a:86:54:ae:36:
                    c5:73
                Exponent: 65537 (0x10001)
        X509v3 extensions:
            X509v3 Basic Constraints: 
                CA:FALSE
            X509v3 Subject Key Identifier: 
                A5:F4:F2:76:27:6D:65:4F:5D:DB:96:A3:D7:A5:C8:97:0B:A0:E7:DE
            X509v3 Authority Key Identifier: 
                keyid:AF:7F:D2:C8:99:48:D8:5F:2C:8D:97:4D:25:33:89:B0:57:98:14:16
                DirName:/CN=Easy-RSA CA
                serial:E9:DA:38:B5:20:11:34:2B

            X509v3 Extended Key Usage: 
                TLS Web Server Authentication
            X509v3 Key Usage: 
                Digital Signature, Key Encipherment
            X509v3 Subject Alternative Name: 
                DNS:server
    Signature Algorithm: sha256WithRSAEncryption
         8e:f1:a1:4c:de:51:a5:29:9c:ee:1a:aa:67:e6:25:83:3b:89:
         6c:c6:64:8b:c4:06:3e:a3:5f:3d:88:42:c5:ea:af:2d:72:89:
         72:77:e2:d2:04:82:cb:0e:52:23:3f:24:80:04:e8:13:b6:99:
         c5:d3:06:a5:23:8e:b5:8c:27:4c:4e:96:0e:be:00:48:99:89:
         49:e6:ce:52:60:62:60:cd:02:97:c2:af:69:f6:3f:8e:d8:8e:
         36:bc:3f:dd:2e:83:a9:15:78:5a:74:66:4f:0b:e0:a4:4c:fb:
         2b:31:d4:b1:d2:85:15:36:48:d1:05:55:00:44:e2:e3:58:b1:
         35:32:5b:51:e3:03:24:64:ed:36:68:a8:e8:1b:c6:47:3b:88:
         e1:26:a5:9b:8d:b2:4a:56:8c:88:1b:5f:89:91:a9:55:78:0c:
         5e:3f:b3:6e:cf:b6:27:d2:74:92:08:eb:7d:c0:46:ce:0f:e4:
         fa:8f:2a:c3:10:c9:b0:5b:29:35:86:81:95:65:5a:db:0b:2d:
         d2:fa:b8:04:36:fe:44:21:fb:0a:c6:32:91:0d:ce:fc:7d:a6:
         3b:9c:65:a8:ce:3d:73:5e:0b:76:fd:a7:61:f3:34:ca:49:bb:
         25:bc:1d:1a:f1:fc:a2:69:7f:32:9b:04:d3:86:61:19:a0:af:
         a8:3d:6f:5a
-----BEGIN CERTIFICATE-----
MIIDXTCCAkWgAwIBAgIRALESduMWJtv8H3gbsaUpJsEwDQYJKoZIhvcNAQELBQAw
FjEUMBIGA1UEAwwLRWFzeS1SU0EgQ0EwHhcNMjEwOTE4MjAyOTI5WhcNMjMxMjIy
MjAyOTI5WjARMQ8wDQYDVQQDDAZzZXJ2ZXIwggEiMA0GCSqGSIb3DQEBAQUAA4IB
DwAwggEKAoIBAQC6DzEk7oTd8vMblcHe9n4lewuqPEkws1zKi2pZjl+agkAMq9hA
7zItIRdWPGIR7GFbC2+ZRubd1B2xscHVzBPsgEVt7ksGa/TDdO5vgSYOsfqZQ9qT
s46m2j3znVsyQAt+VATDpo+phMskJGQmc0ses97APmQCNErDNP6BN+C2VjOrPIkZ
TSRPPk1gyF5Bieu+DiV8imVbsag7kRH2Rc7SYfeMUGaImO9x7qQFlvDRVSZRTDkt
dgoduAj/lHkTOp1cmP2MoPIth6YqKYke1s9EnD88Qx9obs1O5r9TCaEH5X3Fbn0v
dQL8HKwgKsdYeQKxlFoWlZU8Y9lahlSuNsVzAgMBAAGjgaowgacwCQYDVR0TBAIw
ADAdBgNVHQ4EFgQUpfTydidtZU9d25aj16XIlwug594wRgYDVR0jBD8wPYAUr3/S
yJlI2F8sjZdNJTOJsFeYFBahGqQYMBYxFDASBgNVBAMMC0Vhc3ktUlNBIENBggkA
6do4tSARNCswEwYDVR0lBAwwCgYIKwYBBQUHAwEwCwYDVR0PBAQDAgWgMBEGA1Ud
EQQKMAiCBnNlcnZlcjANBgkqhkiG9w0BAQsFAAOCAQEAjvGhTN5RpSmc7hqqZ+Yl
gzuJbMZki8QGPqNfPYhCxeqvLXKJcnfi0gSCyw5SIz8kgAToE7aZxdMGpSOOtYwn
TE6WDr4ASJmJSebOUmBiYM0Cl8KvafY/jtiONrw/3S6DqRV4WnRmTwvgpEz7KzHU
sdKFFTZI0QVVAETi41ixNTJbUeMDJGTtNmio6BvGRzuI4Salm42ySlaMiBtfiZGp
VXgMXj+zbs+2J9J0kgjrfcBGzg/k+o8qwxDJsFspNYaBlWVa2wst0vq4BDb+RCH7
CsYykQ3O/H2mO5xlqM49c14Ldv2nYfM0ykm7JbwdGvH8oml/MpsE04ZhGaCvqD1v
Wg==
-----END CERTIFICATE-----
